target datalayout = "e-m:e-p270:32:32-p271:32:32-p272:64:64-i64:64-i128:128-f80:128-n8:16:32:64-S128"
target triple = "x86_64-unknown-linux-gnu"

%"struct.icu_75::RuleCharacterIterator::Pos" = type { ptr, i32, i32 }

; Function Attrs: mustprogress nounwind uwtable
define internal noundef signext i8 @_ZL9U_SUCCESS10UErrorCode(i32 noundef %code) #0 {
entry:
  %code.addr = alloca i32, align 4
  store i32 %code, ptr %code.addr, align 4
  %0 = load i32, ptr %code.addr, align 4
  %cmp = icmp sle i32 %0, 0
  %conv = zext i1 %cmp to i8
  ret i8 %conv
}

; Function Attrs: mustprogress uwtable
define noundef signext i8 @_ZN6icu_7510UnicodeSet24resemblesPropertyPatternERNS_21RuleCharacterIteratorEi(ptr noundef nonnull align 8 dereferenceable(36) %chars, i32 noundef %iterOpts) #1 align 2 {
entry:
  %chars.addr = alloca ptr, align 8
  %iterOpts.addr = alloca i32, align 4
  %result = alloca i8, align 1
  %literal = alloca i8, align 1
  %ec = alloca i32, align 4
  %pos = alloca %"struct.icu_75::RuleCharacterIterator::Pos", align 8
  %c = alloca i32, align 4
  %d = alloca i32, align 4
  store ptr %chars, ptr %chars.addr, align 8
  store i32 %iterOpts, ptr %iterOpts.addr, align 4
  store i8 0, ptr %result, align 1
  store i32 0, ptr %ec, align 4
  %0 = load i32, ptr %iterOpts.addr, align 4
  %and = and i32 %0, -3
  store i32 %and, ptr %iterOpts.addr, align 4
  %1 = load ptr, ptr %chars.addr, align 8
  call void @_ZNK6icu_7521RuleCharacterIterator6getPosERNS0_3PosE(ptr noundef nonnull align 8 dereferenceable(36) %1, ptr noundef nonnull align 8 dereferenceable(16) %pos)
  %2 = load ptr, ptr %chars.addr, align 8
  %3 = load i32, ptr %iterOpts.addr, align 4
  %call = call noundef i32 @_ZN6icu_7521RuleCharacterIterator4nextEiRaR10UErrorCode(ptr noundef nonnull align 8 dereferenceable(36) %2, i32 noundef %3, ptr noundef nonnull align 1 dereferenceable(1) %literal, ptr noundef nonnull align 4 dereferenceable(4) %ec)
  store i32 %call, ptr %c, align 4
  %4 = load i32, ptr %c, align 4
  %cmp = icmp eq i32 %4, 91
  br i1 %cmp, label %if.then, label %lor.lhs.false

lor.lhs.false:                                    ; preds = %entry
  %5 = load i32, ptr %c, align 4
  %cmp1 = icmp eq i32 %5, 92
  br i1 %cmp1, label %if.then, label %if.end

if.then:                                          ; preds = %lor.lhs.false, %entry
  %6 = load ptr, ptr %chars.addr, align 8
  %7 = load i32, ptr %iterOpts.addr, align 4
  %and2 = and i32 %7, -5
  %call3 = call noundef i32 @_ZN6icu_7521RuleCharacterIterator4nextEiRaR10UErrorCode(ptr noundef nonnull align 8 dereferenceable(36) %6, i32 noundef %and2, ptr noundef nonnull align 1 dereferenceable(1) %literal, ptr noundef nonnull align 4 dereferenceable(4) %ec)
  store i32 %call3, ptr %d, align 4
  %8 = load i32, ptr %c, align 4
  %cmp4 = icmp eq i32 %8, 91
  br i1 %cmp4, label %cond.true, label %cond.false

cond.true:                                        ; preds = %if.then
  %9 = load i32, ptr %d, align 4
  %cmp5 = icmp eq i32 %9, 58
  br label %cond.end

cond.false:                                       ; preds = %if.then
  %10 = load i32, ptr %d, align 4
  %cmp6 = icmp eq i32 %10, 78
  br i1 %cmp6, label %lor.end, label %lor.lhs.false7

lor.lhs.false7:                                   ; preds = %cond.false
  %11 = load i32, ptr %d, align 4
  %cmp8 = icmp eq i32 %11, 112
  br i1 %cmp8, label %lor.end, label %lor.rhs

lor.rhs:                                          ; preds = %lor.lhs.false7
  %12 = load i32, ptr %d, align 4
  %cmp9 = icmp eq i32 %12, 80
  br label %lor.end

lor.end:                                          ; preds = %lor.rhs, %lor.lhs.false7, %cond.false
  %13 = phi i1 [ true, %lor.lhs.false7 ], [ true, %cond.false ], [ %cmp9, %lor.rhs ]
  br label %cond.end

cond.end:                                         ; preds = %lor.end, %cond.true
  %cond = phi i1 [ %cmp5, %cond.true ], [ %13, %lor.end ]
  %conv = zext i1 %cond to i8
  store i8 %conv, ptr %result, align 1
  br label %if.end

if.end:                                           ; preds = %cond.end, %lor.lhs.false
  %14 = load ptr, ptr %chars.addr, align 8
  call void @_ZN6icu_7521RuleCharacterIterator6setPosERKNS0_3PosE(ptr noundef nonnull align 8 dereferenceable(36) %14, ptr noundef nonnull align 8 dereferenceable(16) %pos)
  %15 = load i8, ptr %result, align 1
  %tobool = icmp ne i8 %15, 0
  br i1 %tobool, label %land.rhs, label %land.end

land.rhs:                                         ; preds = %if.end
  %16 = load i32, ptr %ec, align 4
  %call10 = call noundef signext i8 @_ZL9U_SUCCESS10UErrorCode(i32 noundef %16)
  %tobool11 = icmp ne i8 %call10, 0
  br label %land.end

land.end:                                         ; preds = %land.rhs, %if.end
  %17 = phi i1 [ false, %if.end ], [ %tobool11, %land.rhs ]
  %conv12 = zext i1 %17 to i8
  ret i8 %conv12
}