; Function Attrs: mustprogress uwtable
define noundef signext i8 @_ZN6icu_7510UnicodeSet24resemblesPropertyPatternERNS_21RuleCharacterIteratorEi(ptr noundef nonnull align 8 dereferenceable(36) %chars, i32 noundef %iterOpts) local_unnamed_addr #1 align 2 {
entry:
  %literal = alloca i8, align 1
  %ec = alloca i32, align 4
  %pos = alloca %"struct.icu_75::RuleCharacterIterator::Pos", align 8
  store i32 0, ptr %ec, align 4
  %and = and i32 %iterOpts, -3
  call void @_ZNK6icu_7521RuleCharacterIterator6getPosERNS0_3PosE(ptr noundef nonnull align 8 dereferenceable(36) %chars, ptr noundef nonnull align 8 dereferenceable(16) %pos)
  %call = call noundef i32 @_ZN6icu_7521RuleCharacterIterator4nextEiRaR10UErrorCode(ptr noundef nonnull align 8 dereferenceable(36) %chars, i32 noundef %and, ptr noundef nonnull align 1 dereferenceable(1) %literal, ptr noundef nonnull align 4 dereferenceable(4) %ec)
  %0 = add i32 %call, -91
  %or.cond = icmp ult i32 %0, 2
  br i1 %or.cond, label %if.then, label %land.end.critedge

if.then:                                          ; preds = %entry
  %cmp = icmp eq i32 %call, 91
  %and2 = and i32 %iterOpts, -7
  %call3 = call noundef i32 @_ZN6icu_7521RuleCharacterIterator4nextEiRaR10UErrorCode(ptr noundef nonnull align 8 dereferenceable(36) %chars, i32 noundef %and2, ptr noundef nonnull align 1 dereferenceable(1) %literal, ptr noundef nonnull align 4 dereferenceable(4) %ec)
  br i1 %cmp, label %cond.end, label %cond.false

cond.false:                                       ; preds = %if.then
  switch i32 %call3, label %cond.end.thread [
    i32 112, label %cond.end.thread13
    i32 78, label %cond.end.thread13
    i32 80, label %cond.end.thread13
  ]

cond.end.thread:                                  ; preds = %cond.false
  call void @_ZN6icu_7521RuleCharacterIterator6setPosERKNS0_3PosE(ptr noundef nonnull align 8 dereferenceable(36) %chars, ptr noundef nonnull align 8 dereferenceable(16) %pos)
  br label %land.end

cond.end.thread13:                                ; preds = %cond.false, %cond.false, %cond.false
  call void @_ZN6icu_7521RuleCharacterIterator6setPosERKNS0_3PosE(ptr noundef nonnull align 8 dereferenceable(36) %chars, ptr noundef nonnull align 8 dereferenceable(16) %pos)
  br label %land.rhs

cond.end:                                         ; preds = %if.then
  %cmp5.not = icmp eq i32 %call3, 58
  call void @_ZN6icu_7521RuleCharacterIterator6setPosERKNS0_3PosE(ptr noundef nonnull align 8 dereferenceable(36) %chars, ptr noundef nonnull align 8 dereferenceable(16) %pos)
  br i1 %cmp5.not, label %land.rhs, label %land.end

land.rhs:                                         ; preds = %cond.end.thread13, %cond.end
  %1 = load i32, ptr %ec, align 4
  %cmp.i = icmp slt i32 %1, 1
  %conv.i = zext i1 %cmp.i to i8
  br label %land.end

land.end.critedge:                                ; preds = %entry
  call void @_ZN6icu_7521RuleCharacterIterator6setPosERKNS0_3PosE(ptr noundef nonnull align 8 dereferenceable(36) %chars, ptr noundef nonnull align 8 dereferenceable(16) %pos)
  br label %land.end

land.end:                                         ; preds = %cond.end.thread, %land.end.critedge, %land.rhs, %cond.end
  %conv12 = phi i8 [ 0, %cond.end ], [ %conv.i, %land.rhs ], [ 0, %land.end.critedge ], [ 0, %cond.end.thread ]
  ret i8 %conv12
}